target datalayout = "e-m:e-p270:32:32-p271:32:32-p272:64:64-i64:64-i128:128-f80:128-n8:16:32:64-S128"
target triple = "x86_64-pc-linux-gnu"

; Function Attrs: inlinehint nounwind null_pointer_is_valid sspstrong uwtable
define internal i32 @rsvp_class_to_tree_type(i32 noundef %0) #5 {
  %2 = alloca i32, align 4
  %3 = alloca i32, align 4
  store i32 %0, ptr %3, align 4
  %4 = load i32, ptr %3, align 4
  switch i32 %4, label %49 [
    i32 1, label %5
    i32 3, label %6
    i32 4, label %7
    i32 5, label %8
    i32 6, label %9
    i32 7, label %10
    i32 8, label %11
    i32 9, label %12
    i32 10, label %13
    i32 11, label %14
    i32 12, label %15
    i32 13, label %16
    i32 14, label %17
    i32 15, label %18
    i32 34, label %19
    i32 35, label %19
    i32 129, label %19
    i32 16, label %19
    i32 19, label %20
    i32 22, label %21
    i32 20, label %22
    i32 21, label %23
    i32 23, label %24
    i32 24, label %25
    i32 25, label %26
    i32 36, label %27
    i32 37, label %28
    i32 130, label %29
    i32 131, label %30
    i32 133, label %31
    i32 134, label %32
    i32 65, label %33
    i32 66, label %34
    i32 195, label %35
    i32 196, label %36
    i32 197, label %37
    i32 67, label %37
    i32 199, label %38
    i32 202, label %39
    i32 204, label %40
    i32 207, label %41
    i32 229, label %42
    i32 230, label %43
    i32 231, label %44
    i32 225, label %45
    i32 193, label %46
    i32 232, label %47
    i32 124, label %48
    i32 125, label %48
    i32 126, label %48
    i32 127, label %48
    i32 188, label %48
    i32 189, label %48
    i32 190, label %48
    i32 191, label %48
    i32 252, label %48
    i32 253, label %48
    i32 254, label %48
    i32 255, label %48
  ]

5:                                                ; preds = %1
  store i32 2, ptr %2, align 4
  br label %50

6:                                                ; preds = %1
  store i32 3, ptr %2, align 4
  br label %50

7:                                                ; preds = %1
  store i32 21, ptr %2, align 4
  br label %50

8:                                                ; preds = %1
  store i32 5, ptr %2, align 4
  br label %50

9:                                                ; preds = %1
  store i32 6, ptr %2, align 4
  br label %50

10:                                               ; preds = %1
  store i32 9, ptr %2, align 4
  br label %50

11:                                               ; preds = %1
  store i32 10, ptr %2, align 4
  br label %50

12:                                               ; preds = %1
  store i32 16, ptr %2, align 4
  br label %50

13:                                               ; preds = %1
  store i32 13, ptr %2, align 4
  br label %50

14:                                               ; preds = %1
  store i32 12, ptr %2, align 4
  br label %50

15:                                               ; preds = %1
  store i32 14, ptr %2, align 4
  br label %50

16:                                               ; preds = %1
  store i32 19, ptr %2, align 4
  br label %50

17:                                               ; preds = %1
  store i32 26, ptr %2, align 4
  br label %50

18:                                               ; preds = %1
  store i32 11, ptr %2, align 4
  br label %50

19:                                               ; preds = %1, %1, %1, %1
  store i32 30, ptr %2, align 4
  br label %50

20:                                               ; preds = %1
  store i32 32, ptr %2, align 4
  br label %50

21:                                               ; preds = %1
  store i32 35, ptr %2, align 4
  br label %50

22:                                               ; preds = %1
  store i32 36, ptr %2, align 4
  br label %50

23:                                               ; preds = %1
  store i32 40, ptr %2, align 4
  br label %50

24:                                               ; preds = %1
  store i32 27, ptr %2, align 4
  br label %50

25:                                               ; preds = %1
  store i32 28, ptr %2, align 4
  br label %50

26:                                               ; preds = %1
  store i32 29, ptr %2, align 4
  br label %50

27:                                               ; preds = %1
  store i32 31, ptr %2, align 4
  br label %50

28:                                               ; preds = %1
  store i32 57, ptr %2, align 4
  br label %50

29:                                               ; preds = %1
  store i32 70, ptr %2, align 4
  br label %50

30:                                               ; preds = %1
  store i32 53, ptr %2, align 4
  br label %50

31:                                               ; preds = %1
  store i32 54, ptr %2, align 4
  br label %50

32:                                               ; preds = %1
  store i32 55, ptr %2, align 4
  br label %50

33:                                               ; preds = %1
  store i32 64, ptr %2, align 4
  br label %50

34:                                               ; preds = %1
  store i32 67, ptr %2, align 4
  br label %50

35:                                               ; preds = %1
  store i32 70, ptr %2, align 4
  br label %50

36:                                               ; preds = %1
  store i32 43, ptr %2, align 4
  br label %50

37:                                               ; preds = %1, %1
  store i32 45, ptr %2, align 4
  br label %50

38:                                               ; preds = %1
  store i32 47, ptr %2, align 4
  br label %50

39:                                               ; preds = %1
  store i32 74, ptr %2, align 4
  br label %50

40:                                               ; preds = %1
  store i32 69, ptr %2, align 4
  br label %50

41:                                               ; preds = %1
  store i32 33, ptr %2, align 4
  br label %50

42:                                               ; preds = %1
  store i32 48, ptr %2, align 4
  br label %50

43:                                               ; preds = %1
  store i32 50, ptr %2, align 4
  br label %50

44:                                               ; preds = %1
  store i32 51, ptr %2, align 4
  br label %50

45:                                               ; preds = %1
  store i32 23, ptr %2, align 4
  br label %50

46:                                               ; preds = %1
  store i32 24, ptr %2, align 4
  br label %50

47:                                               ; preds = %1
  store i32 38, ptr %2, align 4
  br label %50

48:                                               ; preds = %1, %1, %1, %1, %1, %1, %1, %1, %1, %1, %1, %1
  store i32 68, ptr %2, align 4
  br label %50

49:                                               ; preds = %1
  store i32 70, ptr %2, align 4
  br label %50

50:                                               ; preds = %49, %48, %47, %46, %45, %44, %43, %42, %41, %40, %39, %38, %37, %36, %35, %34, %33, %32, %31, %30, %29, %28, %27, %26, %25, %24, %23, %22, %21, %20, %19, %18, %17, %16, %15, %14, %13, %12, %11, %10, %9, %8, %7, %6, %5
  %51 = load i32, ptr %2, align 4
  ret i32 %51
}